ccopy_reg
_reconstructor
p1
(cicarus.results.readwrite
ResultSet
p2
c__builtin__
object
p3
NtRp4
(dp5
S'attr'
p6
(dp7
sS'_results'
p8
ccollections
deque
p9
((lp10
(cicarus.util
Tree
p11
(tRp12
S'workload'
p13
g11
(tRp14
S'n_contents'
p15
I581527
sS'name'
p16
S'YOUTUBETRACE'
p17
sS'n_warmup'
p18
I1000000
sS'unique_contents_file'
p19
S'/home/adita/Greedy 08142017/youtube_traces/All traces/unique_contents'
p20
sS'clients_file'
p21
S'/home/adita/Greedy 08142017/youtube_traces/All traces/clients'
p22
sS'n_measured'
p23
I1467700
sS'timestamps_file'
p24
S'/home/adita/Greedy 08142017/youtube_traces/All traces/timestamps'
p25
sS'reqs_file'
p26
S'/home/adita/Greedy 08142017/youtube_traces/All traces/requests'
p27
sS'num_clients'
p28
I39852
ssS'cache_policy'
p29
g11
(tRp30
g16
S'LRU'
p31
ssS'strategy'
p32
g11
(tRp33
S'network_cache'
p34
F0.020635326999999998
sS'alpha'
p35
F0.80000000000000004
sg16
S'HYBRID'
p36
ssS'content_placement'
p37
g11
(tRp38
g16
S'UNIFORM'
p39
ssS'cache_placement'
p40
g11
(tRp41
g34
F0.020635326999999998
sg16
g39
ssS'desc'
p42
S'Alpha: 0.8, strategy: HYBRID, topology: WIDE, network cache: 0.020635327'
p43
sS'topology'
p44
g11
(tRp45
g16
S'WIDE'
p46
ssg11
(tRp47
S'LATENCY'
p48
g11
(tRp49
S'MEAN'
p50
F50.798288478571912
sstp51
a(g11
(tRp52
S'workload'
p53
g11
(tRp54
S'n_contents'
p55
I581527
sS'name'
p56
S'YOUTUBETRACE'
p57
sS'n_warmup'
p58
I1000000
sS'unique_contents_file'
p59
S'/home/adita/Greedy 08142017/youtube_traces/All traces/unique_contents'
p60
sS'clients_file'
p61
S'/home/adita/Greedy 08142017/youtube_traces/All traces/clients'
p62
sS'n_measured'
p63
I1467700
sS'timestamps_file'
p64
S'/home/adita/Greedy 08142017/youtube_traces/All traces/timestamps'
p65
sS'reqs_file'
p66
S'/home/adita/Greedy 08142017/youtube_traces/All traces/requests'
p67
sS'num_clients'
p68
I39852
ssS'cache_policy'
p69
g11
(tRp70
g56
S'LRU'
p71
ssS'strategy'
p72
g11
(tRp73
S'network_cache'
p74
F0.010317664000000001
sS'alpha'
p75
F0.80000000000000004
sg56
S'HYBRID'
p76
ssS'content_placement'
p77
g11
(tRp78
g56
S'UNIFORM'
p79
ssS'cache_placement'
p80
g11
(tRp81
g74
F0.010317664000000001
sg56
g79
ssS'desc'
p82
S'Alpha: 0.8, strategy: HYBRID, topology: WIDE, network cache: 0.010317664'
p83
sS'topology'
p84
g11
(tRp85
g56
S'WIDE'
p86
ssg11
(tRp87
S'LATENCY'
p88
g11
(tRp89
S'MEAN'
p90
F54.813147100906178
sstp91
a(g11
(tRp92
S'workload'
p93
g11
(tRp94
S'n_contents'
p95
I581527
sS'name'
p96
S'YOUTUBETRACE'
p97
sS'n_warmup'
p98
I1000000
sS'unique_contents_file'
p99
S'/home/adita/Greedy 08142017/youtube_traces/All traces/unique_contents'
p100
sS'clients_file'
p101
S'/home/adita/Greedy 08142017/youtube_traces/All traces/clients'
p102
sS'n_measured'
p103
I1467700
sS'timestamps_file'
p104
S'/home/adita/Greedy 08142017/youtube_traces/All traces/timestamps'
p105
sS'reqs_file'
p106
S'/home/adita/Greedy 08142017/youtube_traces/All traces/requests'
p107
sS'num_clients'
p108
I39852
ssS'cache_policy'
p109
g11
(tRp110
g96
S'LRU'
p111
ssS'strategy'
p112
g11
(tRp113
S'network_cache'
p114
F0.00068784399999999996
sS'alpha'
p115
F0.80000000000000004
sg96
S'HYBRID'
p116
ssS'content_placement'
p117
g11
(tRp118
g96
S'UNIFORM'
p119
ssS'cache_placement'
p120
g11
(tRp121
g114
F0.00068784399999999996
sg96
g119
ssS'desc'
p122
S'Alpha: 0.8, strategy: HYBRID, topology: WIDE, network cache: 0.000687844'
p123
sS'topology'
p124
g11
(tRp125
g96
S'WIDE'
p126
ssg11
(tRp127
S'LATENCY'
p128
g11
(tRp129
S'MEAN'
p130
F65.021255024868836
sstp131
a(g11
(tRp132
S'workload'
p133
g11
(tRp134
S'n_contents'
p135
I581527
sS'name'
p136
S'YOUTUBETRACE'
p137
sS'n_warmup'
p138
I1000000
sS'unique_contents_file'
p139
S'/home/adita/Greedy 08142017/youtube_traces/All traces/unique_contents'
p140
sS'clients_file'
p141
S'/home/adita/Greedy 08142017/youtube_traces/All traces/clients'
p142
sS'n_measured'
p143
I1467700
sS'timestamps_file'
p144
S'/home/adita/Greedy 08142017/youtube_traces/All traces/timestamps'
p145
sS'reqs_file'
p146
S'/home/adita/Greedy 08142017/youtube_traces/All traces/requests'
p147
sS'num_clients'
p148
I39852
ssS'cache_policy'
p149
g11
(tRp150
g136
S'LRU'
p151
ssS'strategy'
p152
g11
(tRp153
S'network_cache'
p154
F0.0017196100000000001
sS'alpha'
p155
F0.80000000000000004
sg136
S'HYBRID'
p156
ssS'content_placement'
p157
g11
(tRp158
g136
S'UNIFORM'
p159
ssS'cache_placement'
p160
g11
(tRp161
g154
F0.0017196100000000001
sg136
g159
ssS'desc'
p162
S'Alpha: 0.8, strategy: HYBRID, topology: WIDE, network cache: 0.00171961'
p163
sS'topology'
p164
g11
(tRp165
g136
S'WIDE'
p166
ssg11
(tRp167
S'LATENCY'
p168
g11
(tRp169
S'MEAN'
p170
F62.342952919533964
sstp171
a(g11
(tRp172
S'workload'
p173
g11
(tRp174
S'n_contents'
p175
I581527
sS'name'
p176
S'YOUTUBETRACE'
p177
sS'n_warmup'
p178
I1000000
sS'unique_contents_file'
p179
S'/home/adita/Greedy 08142017/youtube_traces/All traces/unique_contents'
p180
sS'clients_file'
p181
S'/home/adita/Greedy 08142017/youtube_traces/All traces/clients'
p182
sS'n_measured'
p183
I1467700
sS'timestamps_file'
p184
S'/home/adita/Greedy 08142017/youtube_traces/All traces/timestamps'
p185
sS'reqs_file'
p186
S'/home/adita/Greedy 08142017/youtube_traces/All traces/requests'
p187
sS'num_clients'
p188
I39852
ssS'cache_policy'
p189
g11
(tRp190
g176
S'LRU'
p191
ssS'strategy'
p192
g11
(tRp193
S'network_cache'
p194
F0.0034392210000000001
sS'alpha'
p195
F0.80000000000000004
sg176
S'HYBRID'
p196
ssS'content_placement'
p197
g11
(tRp198
g176
S'UNIFORM'
p199
ssS'cache_placement'
p200
g11
(tRp201
g194
F0.0034392210000000001
sg176
g199
ssS'desc'
p202
S'Alpha: 0.8, strategy: HYBRID, topology: WIDE, network cache: 0.003439221'
p203
sS'topology'
p204
g11
(tRp205
g176
S'WIDE'
p206
ssg11
(tRp207
S'LATENCY'
p208
g11
(tRp209
S'MEAN'
p210
F59.872074674661036
sstp211
a(g11
(tRp212
S'workload'
p213
g11
(tRp214
S'n_contents'
p215
I581527
sS'name'
p216
S'YOUTUBETRACE'
p217
sS'n_warmup'
p218
I1000000
sS'unique_contents_file'
p219
S'/home/adita/Greedy 08142017/youtube_traces/All traces/unique_contents'
p220
sS'clients_file'
p221
S'/home/adita/Greedy 08142017/youtube_traces/All traces/clients'
p222
sS'n_measured'
p223
I1467700
sS'timestamps_file'
p224
S'/home/adita/Greedy 08142017/youtube_traces/All traces/timestamps'
p225
sS'reqs_file'
p226
S'/home/adita/Greedy 08142017/youtube_traces/All traces/requests'
p227
sS'num_clients'
p228
I39852
ssS'cache_policy'
p229
g11
(tRp230
g216
S'LRU'
p231
ssS'strategy'
p232
g11
(tRp233
S'network_cache'
p234
F0.00017196099999999999
sS'alpha'
p235
F0.80000000000000004
sg216
S'HYBRID'
p236
ssS'content_placement'
p237
g11
(tRp238
g216
S'UNIFORM'
p239
ssS'cache_placement'
p240
g11
(tRp241
g234
F0.00017196099999999999
sg216
g239
ssS'desc'
p242
S'Alpha: 0.8, strategy: HYBRID, topology: WIDE, network cache: 0.000171961'
p243
sS'topology'
p244
g11
(tRp245
g216
S'WIDE'
p246
ssg11
(tRp247
S'LATENCY'
p248
g11
(tRp249
S'MEAN'
p250
F68.974771411051307
sstp251
atRp252
sb.