ccopy_reg
_reconstructor
p1
(cicarus.results.readwrite
ResultSet
p2
c__builtin__
object
p3
NtRp4
(dp5
S'attr'
p6
(dp7
sS'_results'
p8
ccollections
deque
p9
((lp10
(cicarus.util
Tree
p11
(tRp12
S'workload'
p13
g11
(tRp14
S'n_contents'
p15
I581527
sS'name'
p16
S'YOUTUBETRACE'
p17
sS'n_warmup'
p18
I1000000
sS'unique_contents_file'
p19
S'/home/adita/Greedy 08142017/youtube_traces/All traces/unique_contents'
p20
sS'clients_file'
p21
S'/home/adita/Greedy 08142017/youtube_traces/All traces/clients'
p22
sS'n_measured'
p23
I1467700
sS'timestamps_file'
p24
S'/home/adita/Greedy 08142017/youtube_traces/All traces/timestamps'
p25
sS'reqs_file'
p26
S'/home/adita/Greedy 08142017/youtube_traces/All traces/requests'
p27
sS'num_clients'
p28
I39852
ssS'cache_policy'
p29
g11
(tRp30
g16
S'LRU'
p31
ssS'strategy'
p32
g11
(tRp33
S'network_cache'
p34
F0.020635326999999998
sS'alpha'
p35
F0.80000000000000004
sg16
S'CL4M'
p36
ssS'content_placement'
p37
g11
(tRp38
g16
S'UNIFORM'
p39
ssS'cache_placement'
p40
g11
(tRp41
g34
F0.020635326999999998
sg16
g39
ssS'desc'
p42
S'Alpha: 0.8, strategy: CL4M, topology: WIDE, network cache: 0.020635327'
p43
sS'topology'
p44
g11
(tRp45
g16
S'WIDE'
p46
ssg11
(tRp47
S'LATENCY'
p48
g11
(tRp49
S'MEAN'
p50
F52.155707569666824
sstp51
a(g11
(tRp52
S'workload'
p53
g11
(tRp54
S'n_contents'
p55
I581527
sS'name'
p56
S'YOUTUBETRACE'
p57
sS'n_warmup'
p58
I1000000
sS'unique_contents_file'
p59
S'/home/adita/Greedy 08142017/youtube_traces/All traces/unique_contents'
p60
sS'clients_file'
p61
S'/home/adita/Greedy 08142017/youtube_traces/All traces/clients'
p62
sS'n_measured'
p63
I1467700
sS'timestamps_file'
p64
S'/home/adita/Greedy 08142017/youtube_traces/All traces/timestamps'
p65
sS'reqs_file'
p66
S'/home/adita/Greedy 08142017/youtube_traces/All traces/requests'
p67
sS'num_clients'
p68
I39852
ssS'cache_policy'
p69
g11
(tRp70
g56
S'LRU'
p71
ssS'strategy'
p72
g11
(tRp73
S'network_cache'
p74
F0.00068784399999999996
sS'alpha'
p75
F0.80000000000000004
sg56
S'CL4M'
p76
ssS'content_placement'
p77
g11
(tRp78
g56
S'UNIFORM'
p79
ssS'cache_placement'
p80
g11
(tRp81
g74
F0.00068784399999999996
sg56
g79
ssS'desc'
p82
S'Alpha: 0.8, strategy: CL4M, topology: WIDE, network cache: 0.000687844'
p83
sS'topology'
p84
g11
(tRp85
g56
S'WIDE'
p86
ssg11
(tRp87
S'LATENCY'
p88
g11
(tRp89
S'MEAN'
p90
F62.375902432377188
sstp91
a(g11
(tRp92
S'workload'
p93
g11
(tRp94
S'n_contents'
p95
I581527
sS'name'
p96
S'YOUTUBETRACE'
p97
sS'n_warmup'
p98
I1000000
sS'unique_contents_file'
p99
S'/home/adita/Greedy 08142017/youtube_traces/All traces/unique_contents'
p100
sS'clients_file'
p101
S'/home/adita/Greedy 08142017/youtube_traces/All traces/clients'
p102
sS'n_measured'
p103
I1467700
sS'timestamps_file'
p104
S'/home/adita/Greedy 08142017/youtube_traces/All traces/timestamps'
p105
sS'reqs_file'
p106
S'/home/adita/Greedy 08142017/youtube_traces/All traces/requests'
p107
sS'num_clients'
p108
I39852
ssS'cache_policy'
p109
g11
(tRp110
g96
S'LRU'
p111
ssS'strategy'
p112
g11
(tRp113
S'network_cache'
p114
F0.020635326999999998
sS'alpha'
p115
F0.80000000000000004
sg96
S'LCE'
p116
ssS'content_placement'
p117
g11
(tRp118
g96
S'UNIFORM'
p119
ssS'cache_placement'
p120
g11
(tRp121
g114
F0.020635326999999998
sg96
g119
ssS'desc'
p122
S'Alpha: 0.8, strategy: LCE, topology: WIDE, network cache: 0.020635327'
p123
sS'topology'
p124
g11
(tRp125
g96
S'WIDE'
p126
ssg11
(tRp127
S'LATENCY'
p128
g11
(tRp129
S'MEAN'
p130
F53.206014853171631
sstp131
a(g11
(tRp132
S'workload'
p133
g11
(tRp134
S'n_contents'
p135
I581527
sS'name'
p136
S'YOUTUBETRACE'
p137
sS'n_warmup'
p138
I1000000
sS'unique_contents_file'
p139
S'/home/adita/Greedy 08142017/youtube_traces/All traces/unique_contents'
p140
sS'clients_file'
p141
S'/home/adita/Greedy 08142017/youtube_traces/All traces/clients'
p142
sS'n_measured'
p143
I1467700
sS'timestamps_file'
p144
S'/home/adita/Greedy 08142017/youtube_traces/All traces/timestamps'
p145
sS'reqs_file'
p146
S'/home/adita/Greedy 08142017/youtube_traces/All traces/requests'
p147
sS'num_clients'
p148
I39852
ssS'cache_policy'
p149
g11
(tRp150
g136
S'LRU'
p151
ssS'strategy'
p152
g11
(tRp153
S'network_cache'
p154
F0.020635326999999998
sS'alpha'
p155
F0.80000000000000004
sg136
S'HYBRID'
p156
ssS'content_placement'
p157
g11
(tRp158
g136
S'UNIFORM'
p159
ssS'cache_placement'
p160
g11
(tRp161
g154
F0.020635326999999998
sg136
g159
ssS'desc'
p162
S'Alpha: 0.8, strategy: HYBRID, topology: WIDE, network cache: 0.020635327'
p163
sS'topology'
p164
g11
(tRp165
g136
S'WIDE'
p166
ssg11
(tRp167
S'LATENCY'
p168
g11
(tRp169
S'MEAN'
p170
F51.610893234312186
sstp171
a(g11
(tRp172
S'workload'
p173
g11
(tRp174
S'n_contents'
p175
I581527
sS'name'
p176
S'YOUTUBETRACE'
p177
sS'n_warmup'
p178
I1000000
sS'unique_contents_file'
p179
S'/home/adita/Greedy 08142017/youtube_traces/All traces/unique_contents'
p180
sS'clients_file'
p181
S'/home/adita/Greedy 08142017/youtube_traces/All traces/clients'
p182
sS'n_measured'
p183
I1467700
sS'timestamps_file'
p184
S'/home/adita/Greedy 08142017/youtube_traces/All traces/timestamps'
p185
sS'reqs_file'
p186
S'/home/adita/Greedy 08142017/youtube_traces/All traces/requests'
p187
sS'num_clients'
p188
I39852
ssS'cache_policy'
p189
g11
(tRp190
g176
S'LRU'
p191
ssS'strategy'
p192
g11
(tRp193
S'network_cache'
p194
F0.010317664000000001
sS'alpha'
p195
F0.80000000000000004
sg176
S'LCE'
p196
ssS'content_placement'
p197
g11
(tRp198
g176
S'UNIFORM'
p199
ssS'cache_placement'
p200
g11
(tRp201
g194
F0.010317664000000001
sg176
g199
ssS'desc'
p202
S'Alpha: 0.8, strategy: LCE, topology: WIDE, network cache: 0.010317664'
p203
sS'topology'
p204
g11
(tRp205
g176
S'WIDE'
p206
ssg11
(tRp207
S'LATENCY'
p208
g11
(tRp209
S'MEAN'
p210
F56.045388022075358
sstp211
a(g11
(tRp212
S'workload'
p213
g11
(tRp214
S'n_contents'
p215
I581527
sS'name'
p216
S'YOUTUBETRACE'
p217
sS'n_warmup'
p218
I1000000
sS'unique_contents_file'
p219
S'/home/adita/Greedy 08142017/youtube_traces/All traces/unique_contents'
p220
sS'clients_file'
p221
S'/home/adita/Greedy 08142017/youtube_traces/All traces/clients'
p222
sS'n_measured'
p223
I1467700
sS'timestamps_file'
p224
S'/home/adita/Greedy 08142017/youtube_traces/All traces/timestamps'
p225
sS'reqs_file'
p226
S'/home/adita/Greedy 08142017/youtube_traces/All traces/requests'
p227
sS'num_clients'
p228
I39852
ssS'cache_policy'
p229
g11
(tRp230
g216
S'LRU'
p231
ssS'strategy'
p232
g11
(tRp233
S'network_cache'
p234
F0.00068784399999999996
sS'alpha'
p235
F0.80000000000000004
sg216
S'LCE'
p236
ssS'content_placement'
p237
g11
(tRp238
g216
S'UNIFORM'
p239
ssS'cache_placement'
p240
g11
(tRp241
g234
F0.00068784399999999996
sg216
g239
ssS'desc'
p242
S'Alpha: 0.8, strategy: LCE, topology: WIDE, network cache: 0.000687844'
p243
sS'topology'
p244
g11
(tRp245
g216
S'WIDE'
p246
ssg11
(tRp247
S'LATENCY'
p248
g11
(tRp249
S'MEAN'
p250
F62.697444981944543
sstp251
a(g11
(tRp252
S'workload'
p253
g11
(tRp254
S'n_contents'
p255
I581527
sS'name'
p256
S'YOUTUBETRACE'
p257
sS'n_warmup'
p258
I1000000
sS'unique_contents_file'
p259
S'/home/adita/Greedy 08142017/youtube_traces/All traces/unique_contents'
p260
sS'clients_file'
p261
S'/home/adita/Greedy 08142017/youtube_traces/All traces/clients'
p262
sS'n_measured'
p263
I1467700
sS'timestamps_file'
p264
S'/home/adita/Greedy 08142017/youtube_traces/All traces/timestamps'
p265
sS'reqs_file'
p266
S'/home/adita/Greedy 08142017/youtube_traces/All traces/requests'
p267
sS'num_clients'
p268
I39852
ssS'cache_policy'
p269
g11
(tRp270
g256
S'LRU'
p271
ssS'strategy'
p272
g11
(tRp273
S'network_cache'
p274
F0.010317664000000001
sS'alpha'
p275
F0.80000000000000004
sg256
S'HYBRID'
p276
ssS'content_placement'
p277
g11
(tRp278
g256
S'UNIFORM'
p279
ssS'cache_placement'
p280
g11
(tRp281
g274
F0.010317664000000001
sg256
g279
ssS'desc'
p282
S'Alpha: 0.8, strategy: HYBRID, topology: WIDE, network cache: 0.010317664'
p283
sS'topology'
p284
g11
(tRp285
g256
S'WIDE'
p286
ssg11
(tRp287
S'LATENCY'
p288
g11
(tRp289
S'MEAN'
p290
F54.903601553450976
sstp291
a(g11
(tRp292
S'workload'
p293
g11
(tRp294
S'n_contents'
p295
I581527
sS'name'
p296
S'YOUTUBETRACE'
p297
sS'n_warmup'
p298
I1000000
sS'unique_contents_file'
p299
S'/home/adita/Greedy 08142017/youtube_traces/All traces/unique_contents'
p300
sS'clients_file'
p301
S'/home/adita/Greedy 08142017/youtube_traces/All traces/clients'
p302
sS'n_measured'
p303
I1467700
sS'timestamps_file'
p304
S'/home/adita/Greedy 08142017/youtube_traces/All traces/timestamps'
p305
sS'reqs_file'
p306
S'/home/adita/Greedy 08142017/youtube_traces/All traces/requests'
p307
sS'num_clients'
p308
I39852
ssS'cache_policy'
p309
g11
(tRp310
g296
S'LRU'
p311
ssS'strategy'
p312
g11
(tRp313
S'network_cache'
p314
F0.00068784399999999996
sS'alpha'
p315
F0.80000000000000004
sg296
S'HYBRID'
p316
ssS'content_placement'
p317
g11
(tRp318
g296
S'UNIFORM'
p319
ssS'cache_placement'
p320
g11
(tRp321
g314
F0.00068784399999999996
sg296
g319
ssS'desc'
p322
S'Alpha: 0.8, strategy: HYBRID, topology: WIDE, network cache: 0.000687844'
p323
sS'topology'
p324
g11
(tRp325
g296
S'WIDE'
p326
ssg11
(tRp327
S'LATENCY'
p328
g11
(tRp329
S'MEAN'
p330
F62.188561695169312
sstp331
a(g11
(tRp332
S'workload'
p333
g11
(tRp334
S'n_contents'
p335
I581527
sS'name'
p336
S'YOUTUBETRACE'
p337
sS'n_warmup'
p338
I1000000
sS'unique_contents_file'
p339
S'/home/adita/Greedy 08142017/youtube_traces/All traces/unique_contents'
p340
sS'clients_file'
p341
S'/home/adita/Greedy 08142017/youtube_traces/All traces/clients'
p342
sS'n_measured'
p343
I1467700
sS'timestamps_file'
p344
S'/home/adita/Greedy 08142017/youtube_traces/All traces/timestamps'
p345
sS'reqs_file'
p346
S'/home/adita/Greedy 08142017/youtube_traces/All traces/requests'
p347
sS'num_clients'
p348
I39852
ssS'cache_policy'
p349
g11
(tRp350
g336
S'LRU'
p351
ssS'strategy'
p352
g11
(tRp353
S'network_cache'
p354
F0.010317664000000001
sS'alpha'
p355
F0.80000000000000004
sg336
S'CL4M'
p356
ssS'content_placement'
p357
g11
(tRp358
g336
S'UNIFORM'
p359
ssS'cache_placement'
p360
g11
(tRp361
g354
F0.010317664000000001
sg336
g359
ssS'desc'
p362
S'Alpha: 0.8, strategy: CL4M, topology: WIDE, network cache: 0.010317664'
p363
sS'topology'
p364
g11
(tRp365
g336
S'WIDE'
p366
ssg11
(tRp367
S'LATENCY'
p368
g11
(tRp369
S'MEAN'
p370
F55.441343598828098
sstp371
a(g11
(tRp372
S'workload'
p373
g11
(tRp374
S'n_contents'
p375
I581527
sS'name'
p376
S'YOUTUBETRACE'
p377
sS'n_warmup'
p378
I1000000
sS'unique_contents_file'
p379
S'/home/adita/Greedy 08142017/youtube_traces/All traces/unique_contents'
p380
sS'clients_file'
p381
S'/home/adita/Greedy 08142017/youtube_traces/All traces/clients'
p382
sS'n_measured'
p383
I1467700
sS'timestamps_file'
p384
S'/home/adita/Greedy 08142017/youtube_traces/All traces/timestamps'
p385
sS'reqs_file'
p386
S'/home/adita/Greedy 08142017/youtube_traces/All traces/requests'
p387
sS'num_clients'
p388
I39852
ssS'cache_policy'
p389
g11
(tRp390
g376
S'LRU'
p391
ssS'strategy'
p392
g11
(tRp393
S'network_cache'
p394
F0.020635326999999998
sS'alpha'
p395
F0.80000000000000004
sg376
S'PROB_CACHE'
p396
ssS'content_placement'
p397
g11
(tRp398
g376
S'UNIFORM'
p399
ssS'cache_placement'
p400
g11
(tRp401
g394
F0.020635326999999998
sg376
g399
ssS'desc'
p402
S'Alpha: 0.8, strategy: PROB_CACHE, topology: WIDE, network cache: 0.020635327'
p403
sS'topology'
p404
g11
(tRp405
g376
S'WIDE'
p406
ssg11
(tRp407
S'LATENCY'
p408
g11
(tRp409
S'MEAN'
p410
F61.442490972269539
sstp411
a(g11
(tRp412
S'workload'
p413
g11
(tRp414
S'n_contents'
p415
I581527
sS'name'
p416
S'YOUTUBETRACE'
p417
sS'n_warmup'
p418
I1000000
sS'unique_contents_file'
p419
S'/home/adita/Greedy 08142017/youtube_traces/All traces/unique_contents'
p420
sS'clients_file'
p421
S'/home/adita/Greedy 08142017/youtube_traces/All traces/clients'
p422
sS'n_measured'
p423
I1467700
sS'timestamps_file'
p424
S'/home/adita/Greedy 08142017/youtube_traces/All traces/timestamps'
p425
sS'reqs_file'
p426
S'/home/adita/Greedy 08142017/youtube_traces/All traces/requests'
p427
sS'num_clients'
p428
I39852
ssS'cache_policy'
p429
g11
(tRp430
g416
S'LRU'
p431
ssS'strategy'
p432
g11
(tRp433
S'network_cache'
p434
F0.010317664000000001
sS'alpha'
p435
F0.80000000000000004
sg416
S'LCD'
p436
ssS'content_placement'
p437
g11
(tRp438
g416
S'UNIFORM'
p439
ssS'cache_placement'
p440
g11
(tRp441
g434
F0.010317664000000001
sg416
g439
ssS'desc'
p442
S'Alpha: 0.8, strategy: LCD, topology: WIDE, network cache: 0.010317664'
p443
sS'topology'
p444
g11
(tRp445
g416
S'WIDE'
p446
ssg11
(tRp447
S'LATENCY'
p448
g11
(tRp449
S'MEAN'
p450
F55.516953055801594
sstp451
a(g11
(tRp452
S'workload'
p453
g11
(tRp454
S'n_contents'
p455
I581527
sS'name'
p456
S'YOUTUBETRACE'
p457
sS'n_warmup'
p458
I1000000
sS'unique_contents_file'
p459
S'/home/adita/Greedy 08142017/youtube_traces/All traces/unique_contents'
p460
sS'clients_file'
p461
S'/home/adita/Greedy 08142017/youtube_traces/All traces/clients'
p462
sS'n_measured'
p463
I1467700
sS'timestamps_file'
p464
S'/home/adita/Greedy 08142017/youtube_traces/All traces/timestamps'
p465
sS'reqs_file'
p466
S'/home/adita/Greedy 08142017/youtube_traces/All traces/requests'
p467
sS'num_clients'
p468
I39852
ssS'cache_policy'
p469
g11
(tRp470
g456
S'LRU'
p471
ssS'strategy'
p472
g11
(tRp473
S'network_cache'
p474
F0.020635326999999998
sS'alpha'
p475
F0.80000000000000004
sg456
S'LCD'
p476
ssS'content_placement'
p477
g11
(tRp478
g456
S'UNIFORM'
p479
ssS'cache_placement'
p480
g11
(tRp481
g474
F0.020635326999999998
sg456
g479
ssS'desc'
p482
S'Alpha: 0.8, strategy: LCD, topology: WIDE, network cache: 0.020635327'
p483
sS'topology'
p484
g11
(tRp485
g456
S'WIDE'
p486
ssg11
(tRp487
S'LATENCY'
p488
g11
(tRp489
S'MEAN'
p490
F52.677936908087482
sstp491
a(g11
(tRp492
S'workload'
p493
g11
(tRp494
S'n_contents'
p495
I581527
sS'name'
p496
S'YOUTUBETRACE'
p497
sS'n_warmup'
p498
I1000000
sS'unique_contents_file'
p499
S'/home/adita/Greedy 08142017/youtube_traces/All traces/unique_contents'
p500
sS'clients_file'
p501
S'/home/adita/Greedy 08142017/youtube_traces/All traces/clients'
p502
sS'n_measured'
p503
I1467700
sS'timestamps_file'
p504
S'/home/adita/Greedy 08142017/youtube_traces/All traces/timestamps'
p505
sS'reqs_file'
p506
S'/home/adita/Greedy 08142017/youtube_traces/All traces/requests'
p507
sS'num_clients'
p508
I39852
ssS'cache_policy'
p509
g11
(tRp510
g496
S'LRU'
p511
ssS'strategy'
p512
g11
(tRp513
S'network_cache'
p514
F0.010317664000000001
sS'alpha'
p515
F0.80000000000000004
sg496
S'PROB_CACHE'
p516
ssS'content_placement'
p517
g11
(tRp518
g496
S'UNIFORM'
p519
ssS'cache_placement'
p520
g11
(tRp521
g514
F0.010317664000000001
sg496
g519
ssS'desc'
p522
S'Alpha: 0.8, strategy: PROB_CACHE, topology: WIDE, network cache: 0.010317664'
p523
sS'topology'
p524
g11
(tRp525
g496
S'WIDE'
p526
ssg11
(tRp527
S'LATENCY'
p528
g11
(tRp529
S'MEAN'
p530
F63.701909109491041
sstp531
a(g11
(tRp532
S'workload'
p533
g11
(tRp534
S'n_contents'
p535
I581527
sS'name'
p536
S'YOUTUBETRACE'
p537
sS'n_warmup'
p538
I1000000
sS'unique_contents_file'
p539
S'/home/adita/Greedy 08142017/youtube_traces/All traces/unique_contents'
p540
sS'clients_file'
p541
S'/home/adita/Greedy 08142017/youtube_traces/All traces/clients'
p542
sS'n_measured'
p543
I1467700
sS'timestamps_file'
p544
S'/home/adita/Greedy 08142017/youtube_traces/All traces/timestamps'
p545
sS'reqs_file'
p546
S'/home/adita/Greedy 08142017/youtube_traces/All traces/requests'
p547
sS'num_clients'
p548
I39852
ssS'cache_policy'
p549
g11
(tRp550
g536
S'LRU'
p551
ssS'strategy'
p552
g11
(tRp553
S'network_cache'
p554
F0.00068784399999999996
sS'alpha'
p555
F0.80000000000000004
sg536
S'PROB_CACHE'
p556
ssS'content_placement'
p557
g11
(tRp558
g536
S'UNIFORM'
p559
ssS'cache_placement'
p560
g11
(tRp561
g554
F0.00068784399999999996
sg536
g559
ssS'desc'
p562
S'Alpha: 0.8, strategy: PROB_CACHE, topology: WIDE, network cache: 0.000687844'
p563
sS'topology'
p564
g11
(tRp565
g536
S'WIDE'
p566
ssg11
(tRp567
S'LATENCY'
p568
g11
(tRp569
S'MEAN'
p570
F69.255684404169784
sstp571
a(g11
(tRp572
S'workload'
p573
g11
(tRp574
S'n_contents'
p575
I581527
sS'name'
p576
S'YOUTUBETRACE'
p577
sS'n_warmup'
p578
I1000000
sS'unique_contents_file'
p579
S'/home/adita/Greedy 08142017/youtube_traces/All traces/unique_contents'
p580
sS'clients_file'
p581
S'/home/adita/Greedy 08142017/youtube_traces/All traces/clients'
p582
sS'n_measured'
p583
I1467700
sS'timestamps_file'
p584
S'/home/adita/Greedy 08142017/youtube_traces/All traces/timestamps'
p585
sS'reqs_file'
p586
S'/home/adita/Greedy 08142017/youtube_traces/All traces/requests'
p587
sS'num_clients'
p588
I39852
ssS'cache_policy'
p589
g11
(tRp590
g576
S'LRU'
p591
ssS'strategy'
p592
g11
(tRp593
S'network_cache'
p594
F0.00068784399999999996
sS'alpha'
p595
F0.80000000000000004
sg576
S'LCD'
p596
ssS'content_placement'
p597
g11
(tRp598
g576
S'UNIFORM'
p599
ssS'cache_placement'
p600
g11
(tRp601
g594
F0.00068784399999999996
sg576
g599
ssS'desc'
p602
S'Alpha: 0.8, strategy: LCD, topology: WIDE, network cache: 0.000687844'
p603
sS'topology'
p604
g11
(tRp605
g576
S'WIDE'
p606
ssg11
(tRp607
S'LATENCY'
p608
g11
(tRp609
S'MEAN'
p610
F62.397765210874155
sstp611
atRp612
sb.