ccopy_reg
_reconstructor
p1
(cicarus.results.readwrite
ResultSet
p2
c__builtin__
object
p3
NtRp4
(dp5
S'attr'
p6
(dp7
sS'_results'
p8
ccollections
deque
p9
((lp10
(cicarus.util
Tree
p11
(tRp12
S'workload'
p13
g11
(tRp14
S'n_contents'
p15
I581527
sS'name'
p16
S'YOUTUBETRACE'
p17
sS'n_warmup'
p18
I900000
sS'unique_contents_file'
p19
S'/home/adita/Greedy 08142017/youtube_traces/All traces/unique_contents'
p20
sS'clients_file'
p21
S'/home/adita/Greedy 08142017/youtube_traces/All traces/clients'
p22
sS'n_measured'
p23
I1467700
sS'timestamps_file'
p24
S'/home/adita/Greedy 08142017/youtube_traces/All traces/timestamps'
p25
sS'reqs_file'
p26
S'/home/adita/Greedy 08142017/youtube_traces/All traces/requests'
p27
sS'num_clients'
p28
I39852
ssS'cache_policy'
p29
g11
(tRp30
g16
S'LRU'
p31
ssS'strategy'
p32
g11
(tRp33
S'network_cache'
p34
F0.0051588320000000003
sS'alpha'
p35
F0.80000000000000004
sg16
S'LCE'
p36
ssS'content_placement'
p37
g11
(tRp38
g16
S'UNIFORM'
p39
ssS'cache_placement'
p40
g11
(tRp41
g34
F0.0051588320000000003
sg16
g39
ssS'desc'
p42
S'Alpha: 0.8, strategy: LCE, topology: GARR, network cache: 0.005158832'
p43
sS'topology'
p44
g11
(tRp45
g16
S'GARR'
p46
ssg11
(tRp47
S'LATENCY'
p48
g11
(tRp49
S'MEAN'
p50
F56.635920147169038
sstp51
a(g11
(tRp52
S'workload'
p53
g11
(tRp54
S'n_contents'
p55
I581527
sS'name'
p56
S'YOUTUBETRACE'
p57
sS'n_warmup'
p58
I900000
sS'unique_contents_file'
p59
S'/home/adita/Greedy 08142017/youtube_traces/All traces/unique_contents'
p60
sS'clients_file'
p61
S'/home/adita/Greedy 08142017/youtube_traces/All traces/clients'
p62
sS'n_measured'
p63
I1467700
sS'timestamps_file'
p64
S'/home/adita/Greedy 08142017/youtube_traces/All traces/timestamps'
p65
sS'reqs_file'
p66
S'/home/adita/Greedy 08142017/youtube_traces/All traces/requests'
p67
sS'num_clients'
p68
I39852
ssS'cache_policy'
p69
g11
(tRp70
g56
S'LRU'
p71
ssS'strategy'
p72
g11
(tRp73
S'network_cache'
p74
F0.0068784420000000002
sS'alpha'
p75
F0.80000000000000004
sg56
S'LCE'
p76
ssS'content_placement'
p77
g11
(tRp78
g56
S'UNIFORM'
p79
ssS'cache_placement'
p80
g11
(tRp81
g74
F0.0068784420000000002
sg56
g79
ssS'desc'
p82
S'Alpha: 0.8, strategy: LCE, topology: GARR, network cache: 0.006878442'
p83
sS'topology'
p84
g11
(tRp85
g56
S'GARR'
p86
ssg11
(tRp87
S'LATENCY'
p88
g11
(tRp89
S'MEAN'
p90
F55.73812086938748
sstp91
a(g11
(tRp92
S'workload'
p93
g11
(tRp94
S'n_contents'
p95
I581527
sS'name'
p96
S'YOUTUBETRACE'
p97
sS'n_warmup'
p98
I900000
sS'unique_contents_file'
p99
S'/home/adita/Greedy 08142017/youtube_traces/All traces/unique_contents'
p100
sS'clients_file'
p101
S'/home/adita/Greedy 08142017/youtube_traces/All traces/clients'
p102
sS'n_measured'
p103
I1467700
sS'timestamps_file'
p104
S'/home/adita/Greedy 08142017/youtube_traces/All traces/timestamps'
p105
sS'reqs_file'
p106
S'/home/adita/Greedy 08142017/youtube_traces/All traces/requests'
p107
sS'num_clients'
p108
I39852
ssS'cache_policy'
p109
g11
(tRp110
g96
S'LRU'
p111
ssS'strategy'
p112
g11
(tRp113
S'network_cache'
p114
F0.0034392210000000001
sS'alpha'
p115
F0.80000000000000004
sg96
S'LCE'
p116
ssS'content_placement'
p117
g11
(tRp118
g96
S'UNIFORM'
p119
ssS'cache_placement'
p120
g11
(tRp121
g114
F0.0034392210000000001
sg96
g119
ssS'desc'
p122
S'Alpha: 0.8, strategy: LCE, topology: GARR, network cache: 0.003439221'
p123
sS'topology'
p124
g11
(tRp125
g96
S'GARR'
p126
ssg11
(tRp127
S'LATENCY'
p128
g11
(tRp129
S'MEAN'
p130
F58.014095523608368
sstp131
a(g11
(tRp132
S'workload'
p133
g11
(tRp134
S'n_contents'
p135
I581527
sS'name'
p136
S'YOUTUBETRACE'
p137
sS'n_warmup'
p138
I900000
sS'unique_contents_file'
p139
S'/home/adita/Greedy 08142017/youtube_traces/All traces/unique_contents'
p140
sS'clients_file'
p141
S'/home/adita/Greedy 08142017/youtube_traces/All traces/clients'
p142
sS'n_measured'
p143
I1467700
sS'timestamps_file'
p144
S'/home/adita/Greedy 08142017/youtube_traces/All traces/timestamps'
p145
sS'reqs_file'
p146
S'/home/adita/Greedy 08142017/youtube_traces/All traces/requests'
p147
sS'num_clients'
p148
I39852
ssS'cache_policy'
p149
g11
(tRp150
g136
S'LRU'
p151
ssS'strategy'
p152
g11
(tRp153
S'network_cache'
p154
F0.001719611
sS'alpha'
p155
F0.80000000000000004
sg136
S'LCE'
p156
ssS'content_placement'
p157
g11
(tRp158
g136
S'UNIFORM'
p159
ssS'cache_placement'
p160
g11
(tRp161
g154
F0.001719611
sg136
g159
ssS'desc'
p162
S'Alpha: 0.8, strategy: LCE, topology: GARR, network cache: 0.001719611'
p163
sS'topology'
p164
g11
(tRp165
g136
S'GARR'
p166
ssg11
(tRp167
S'LATENCY'
p168
g11
(tRp169
S'MEAN'
p170
F59.798822647680041
sstp171
a(g11
(tRp172
S'workload'
p173
g11
(tRp174
S'n_contents'
p175
I581527
sS'name'
p176
S'YOUTUBETRACE'
p177
sS'n_warmup'
p178
I900000
sS'unique_contents_file'
p179
S'/home/adita/Greedy 08142017/youtube_traces/All traces/unique_contents'
p180
sS'clients_file'
p181
S'/home/adita/Greedy 08142017/youtube_traces/All traces/clients'
p182
sS'n_measured'
p183
I1467700
sS'timestamps_file'
p184
S'/home/adita/Greedy 08142017/youtube_traces/All traces/timestamps'
p185
sS'reqs_file'
p186
S'/home/adita/Greedy 08142017/youtube_traces/All traces/requests'
p187
sS'num_clients'
p188
I39852
ssS'cache_policy'
p189
g11
(tRp190
g176
S'LRU'
p191
ssS'strategy'
p192
g11
(tRp193
S'network_cache'
p194
F0.0051588320000000003
sS'alpha'
p195
F0.80000000000000004
sg176
S'CL4M'
p196
ssS'content_placement'
p197
g11
(tRp198
g176
S'UNIFORM'
p199
ssS'cache_placement'
p200
g11
(tRp201
g194
F0.0051588320000000003
sg176
g199
ssS'desc'
p202
S'Alpha: 0.8, strategy: CL4M, topology: GARR, network cache: 0.005158832'
p203
sS'topology'
p204
g11
(tRp205
g176
S'GARR'
p206
ssg11
(tRp207
S'LATENCY'
p208
g11
(tRp209
S'MEAN'
p210
F56.368865571983378
sstp211
a(g11
(tRp212
S'workload'
p213
g11
(tRp214
S'n_contents'
p215
I581527
sS'name'
p216
S'YOUTUBETRACE'
p217
sS'n_warmup'
p218
I900000
sS'unique_contents_file'
p219
S'/home/adita/Greedy 08142017/youtube_traces/All traces/unique_contents'
p220
sS'clients_file'
p221
S'/home/adita/Greedy 08142017/youtube_traces/All traces/clients'
p222
sS'n_measured'
p223
I1467700
sS'timestamps_file'
p224
S'/home/adita/Greedy 08142017/youtube_traces/All traces/timestamps'
p225
sS'reqs_file'
p226
S'/home/adita/Greedy 08142017/youtube_traces/All traces/requests'
p227
sS'num_clients'
p228
I39852
ssS'cache_policy'
p229
g11
(tRp230
g216
S'LRU'
p231
ssS'strategy'
p232
g11
(tRp233
S'network_cache'
p234
F0.001719611
sS'alpha'
p235
F0.80000000000000004
sg216
S'CL4M'
p236
ssS'content_placement'
p237
g11
(tRp238
g216
S'UNIFORM'
p239
ssS'cache_placement'
p240
g11
(tRp241
g234
F0.001719611
sg216
g239
ssS'desc'
p242
S'Alpha: 0.8, strategy: CL4M, topology: GARR, network cache: 0.001719611'
p243
sS'topology'
p244
g11
(tRp245
g216
S'GARR'
p246
ssg11
(tRp247
S'LATENCY'
p248
g11
(tRp249
S'MEAN'
p250
F59.46627239899162
sstp251
a(g11
(tRp252
S'workload'
p253
g11
(tRp254
S'n_contents'
p255
I581527
sS'name'
p256
S'YOUTUBETRACE'
p257
sS'n_warmup'
p258
I900000
sS'unique_contents_file'
p259
S'/home/adita/Greedy 08142017/youtube_traces/All traces/unique_contents'
p260
sS'clients_file'
p261
S'/home/adita/Greedy 08142017/youtube_traces/All traces/clients'
p262
sS'n_measured'
p263
I1467700
sS'timestamps_file'
p264
S'/home/adita/Greedy 08142017/youtube_traces/All traces/timestamps'
p265
sS'reqs_file'
p266
S'/home/adita/Greedy 08142017/youtube_traces/All traces/requests'
p267
sS'num_clients'
p268
I39852
ssS'cache_policy'
p269
g11
(tRp270
g256
S'LRU'
p271
ssS'strategy'
p272
g11
(tRp273
S'network_cache'
p274
F0.0034392210000000001
sS'alpha'
p275
F0.80000000000000004
sg256
S'CL4M'
p276
ssS'content_placement'
p277
g11
(tRp278
g256
S'UNIFORM'
p279
ssS'cache_placement'
p280
g11
(tRp281
g274
F0.0034392210000000001
sg256
g279
ssS'desc'
p282
S'Alpha: 0.8, strategy: CL4M, topology: GARR, network cache: 0.003439221'
p283
sS'topology'
p284
g11
(tRp285
g256
S'GARR'
p286
ssg11
(tRp287
S'LATENCY'
p288
g11
(tRp289
S'MEAN'
p290
F57.832785991687672
sstp291
a(g11
(tRp292
S'workload'
p293
g11
(tRp294
S'n_contents'
p295
I581527
sS'name'
p296
S'YOUTUBETRACE'
p297
sS'n_warmup'
p298
I900000
sS'unique_contents_file'
p299
S'/home/adita/Greedy 08142017/youtube_traces/All traces/unique_contents'
p300
sS'clients_file'
p301
S'/home/adita/Greedy 08142017/youtube_traces/All traces/clients'
p302
sS'n_measured'
p303
I1467700
sS'timestamps_file'
p304
S'/home/adita/Greedy 08142017/youtube_traces/All traces/timestamps'
p305
sS'reqs_file'
p306
S'/home/adita/Greedy 08142017/youtube_traces/All traces/requests'
p307
sS'num_clients'
p308
I39852
ssS'cache_policy'
p309
g11
(tRp310
g296
S'LRU'
p311
ssS'strategy'
p312
g11
(tRp313
S'network_cache'
p314
F0.0068784420000000002
sS'alpha'
p315
F0.80000000000000004
sg296
S'CL4M'
p316
ssS'content_placement'
p317
g11
(tRp318
g296
S'UNIFORM'
p319
ssS'cache_placement'
p320
g11
(tRp321
g314
F0.0068784420000000002
sg296
g319
ssS'desc'
p322
S'Alpha: 0.8, strategy: CL4M, topology: GARR, network cache: 0.006878442'
p323
sS'topology'
p324
g11
(tRp325
g296
S'GARR'
p326
ssg11
(tRp327
S'LATENCY'
p328
g11
(tRp329
S'MEAN'
p330
F55.105991687674596
sstp331
a(g11
(tRp332
S'workload'
p333
g11
(tRp334
S'n_contents'
p335
I581527
sS'name'
p336
S'YOUTUBETRACE'
p337
sS'n_warmup'
p338
I900000
sS'unique_contents_file'
p339
S'/home/adita/Greedy 08142017/youtube_traces/All traces/unique_contents'
p340
sS'clients_file'
p341
S'/home/adita/Greedy 08142017/youtube_traces/All traces/clients'
p342
sS'n_measured'
p343
I1467700
sS'timestamps_file'
p344
S'/home/adita/Greedy 08142017/youtube_traces/All traces/timestamps'
p345
sS'reqs_file'
p346
S'/home/adita/Greedy 08142017/youtube_traces/All traces/requests'
p347
sS'num_clients'
p348
I39852
ssS'cache_policy'
p349
g11
(tRp350
g336
S'LRU'
p351
ssS'strategy'
p352
g11
(tRp353
S'network_cache'
p354
F0.0068784420000000002
sS'alpha'
p355
F0.80000000000000004
sg336
S'PROB_CACHE'
p356
ssS'content_placement'
p357
g11
(tRp358
g336
S'UNIFORM'
p359
ssS'cache_placement'
p360
g11
(tRp361
g354
F0.0068784420000000002
sg336
g359
ssS'desc'
p362
S'Alpha: 0.8, strategy: PROB_CACHE, topology: GARR, network cache: 0.006878442'
p363
sS'topology'
p364
g11
(tRp365
g336
S'GARR'
p366
ssg11
(tRp367
S'LATENCY'
p368
g11
(tRp369
S'MEAN'
p370
F64.487323022416021
sstp371
a(g11
(tRp372
S'workload'
p373
g11
(tRp374
S'n_contents'
p375
I581527
sS'name'
p376
S'YOUTUBETRACE'
p377
sS'n_warmup'
p378
I900000
sS'unique_contents_file'
p379
S'/home/adita/Greedy 08142017/youtube_traces/All traces/unique_contents'
p380
sS'clients_file'
p381
S'/home/adita/Greedy 08142017/youtube_traces/All traces/clients'
p382
sS'n_measured'
p383
I1467700
sS'timestamps_file'
p384
S'/home/adita/Greedy 08142017/youtube_traces/All traces/timestamps'
p385
sS'reqs_file'
p386
S'/home/adita/Greedy 08142017/youtube_traces/All traces/requests'
p387
sS'num_clients'
p388
I39852
ssS'cache_policy'
p389
g11
(tRp390
g376
S'LRU'
p391
ssS'strategy'
p392
g11
(tRp393
S'network_cache'
p394
F0.001719611
sS'alpha'
p395
F0.80000000000000004
sg376
S'PROB_CACHE'
p396
ssS'content_placement'
p397
g11
(tRp398
g376
S'UNIFORM'
p399
ssS'cache_placement'
p400
g11
(tRp401
g394
F0.001719611
sg376
g399
ssS'desc'
p402
S'Alpha: 0.8, strategy: PROB_CACHE, topology: GARR, network cache: 0.001719611'
p403
sS'topology'
p404
g11
(tRp405
g376
S'GARR'
p406
ssg11
(tRp407
S'LATENCY'
p408
g11
(tRp409
S'MEAN'
p410
F67.42023846835184
sstp411
a(g11
(tRp412
S'workload'
p413
g11
(tRp414
S'n_contents'
p415
I581527
sS'name'
p416
S'YOUTUBETRACE'
p417
sS'n_warmup'
p418
I900000
sS'unique_contents_file'
p419
S'/home/adita/Greedy 08142017/youtube_traces/All traces/unique_contents'
p420
sS'clients_file'
p421
S'/home/adita/Greedy 08142017/youtube_traces/All traces/clients'
p422
sS'n_measured'
p423
I1467700
sS'timestamps_file'
p424
S'/home/adita/Greedy 08142017/youtube_traces/All traces/timestamps'
p425
sS'reqs_file'
p426
S'/home/adita/Greedy 08142017/youtube_traces/All traces/requests'
p427
sS'num_clients'
p428
I39852
ssS'cache_policy'
p429
g11
(tRp430
g416
S'LRU'
p431
ssS'strategy'
p432
g11
(tRp433
S'network_cache'
p434
F0.0051588320000000003
sS'alpha'
p435
F0.80000000000000004
sg416
S'PROB_CACHE'
p436
ssS'content_placement'
p437
g11
(tRp438
g416
S'UNIFORM'
p439
ssS'cache_placement'
p440
g11
(tRp441
g434
F0.0051588320000000003
sg416
g439
ssS'desc'
p442
S'Alpha: 0.8, strategy: PROB_CACHE, topology: GARR, network cache: 0.005158832'
p443
sS'topology'
p444
g11
(tRp445
g416
S'GARR'
p446
ssg11
(tRp447
S'LATENCY'
p448
g11
(tRp449
S'MEAN'
p450
F65.160310690195544
sstp451
a(g11
(tRp452
S'workload'
p453
g11
(tRp454
S'n_contents'
p455
I581527
sS'name'
p456
S'YOUTUBETRACE'
p457
sS'n_warmup'
p458
I900000
sS'unique_contents_file'
p459
S'/home/adita/Greedy 08142017/youtube_traces/All traces/unique_contents'
p460
sS'clients_file'
p461
S'/home/adita/Greedy 08142017/youtube_traces/All traces/clients'
p462
sS'n_measured'
p463
I1467700
sS'timestamps_file'
p464
S'/home/adita/Greedy 08142017/youtube_traces/All traces/timestamps'
p465
sS'reqs_file'
p466
S'/home/adita/Greedy 08142017/youtube_traces/All traces/requests'
p467
sS'num_clients'
p468
I39852
ssS'cache_policy'
p469
g11
(tRp470
g456
S'LRU'
p471
ssS'strategy'
p472
g11
(tRp473
S'network_cache'
p474
F0.0034392210000000001
sS'alpha'
p475
F0.80000000000000004
sg456
S'PROB_CACHE'
p476
ssS'content_placement'
p477
g11
(tRp478
g456
S'UNIFORM'
p479
ssS'cache_placement'
p480
g11
(tRp481
g474
F0.0034392210000000001
sg456
g479
ssS'desc'
p482
S'Alpha: 0.8, strategy: PROB_CACHE, topology: GARR, network cache: 0.003439221'
p483
sS'topology'
p484
g11
(tRp485
g456
S'GARR'
p486
ssg11
(tRp487
S'LATENCY'
p488
g11
(tRp489
S'MEAN'
p490
F66.160444232472571
sstp491
a(g11
(tRp492
S'workload'
p493
g11
(tRp494
S'n_contents'
p495
I581527
sS'name'
p496
S'YOUTUBETRACE'
p497
sS'n_warmup'
p498
I900000
sS'unique_contents_file'
p499
S'/home/adita/Greedy 08142017/youtube_traces/All traces/unique_contents'
p500
sS'clients_file'
p501
S'/home/adita/Greedy 08142017/youtube_traces/All traces/clients'
p502
sS'n_measured'
p503
I1467700
sS'timestamps_file'
p504
S'/home/adita/Greedy 08142017/youtube_traces/All traces/timestamps'
p505
sS'reqs_file'
p506
S'/home/adita/Greedy 08142017/youtube_traces/All traces/requests'
p507
sS'num_clients'
p508
I39852
ssS'cache_policy'
p509
g11
(tRp510
g496
S'LRU'
p511
ssS'strategy'
p512
g11
(tRp513
S'network_cache'
p514
F0.001719611
sS'alpha'
p515
F0.80000000000000004
sg496
S'LCD'
p516
ssS'content_placement'
p517
g11
(tRp518
g496
S'UNIFORM'
p519
ssS'cache_placement'
p520
g11
(tRp521
g514
F0.001719611
sg496
g519
ssS'desc'
p522
S'Alpha: 0.8, strategy: LCD, topology: GARR, network cache: 0.001719611'
p523
sS'topology'
p524
g11
(tRp525
g496
S'GARR'
p526
ssg11
(tRp527
S'LATENCY'
p528
g11
(tRp529
S'MEAN'
p530
F59.367658240784898
sstp531
a(g11
(tRp532
S'workload'
p533
g11
(tRp534
S'n_contents'
p535
I581527
sS'name'
p536
S'YOUTUBETRACE'
p537
sS'n_warmup'
p538
I900000
sS'unique_contents_file'
p539
S'/home/adita/Greedy 08142017/youtube_traces/All traces/unique_contents'
p540
sS'clients_file'
p541
S'/home/adita/Greedy 08142017/youtube_traces/All traces/clients'
p542
sS'n_measured'
p543
I1467700
sS'timestamps_file'
p544
S'/home/adita/Greedy 08142017/youtube_traces/All traces/timestamps'
p545
sS'reqs_file'
p546
S'/home/adita/Greedy 08142017/youtube_traces/All traces/requests'
p547
sS'num_clients'
p548
I39852
ssS'cache_policy'
p549
g11
(tRp550
g536
S'LRU'
p551
ssS'strategy'
p552
g11
(tRp553
S'network_cache'
p554
F0.0034392210000000001
sS'alpha'
p555
F0.80000000000000004
sg536
S'LCD'
p556
ssS'content_placement'
p557
g11
(tRp558
g536
S'UNIFORM'
p559
ssS'cache_placement'
p560
g11
(tRp561
g554
F0.0034392210000000001
sg536
g559
ssS'desc'
p562
S'Alpha: 0.8, strategy: LCD, topology: GARR, network cache: 0.003439221'
p563
sS'topology'
p564
g11
(tRp565
g536
S'GARR'
p566
ssg11
(tRp567
S'LATENCY'
p568
g11
(tRp569
S'MEAN'
p570
F57.642706275124347
sstp571
a(g11
(tRp572
S'workload'
p573
g11
(tRp574
S'n_contents'
p575
I581527
sS'name'
p576
S'YOUTUBETRACE'
p577
sS'n_warmup'
p578
I900000
sS'unique_contents_file'
p579
S'/home/adita/Greedy 08142017/youtube_traces/All traces/unique_contents'
p580
sS'clients_file'
p581
S'/home/adita/Greedy 08142017/youtube_traces/All traces/clients'
p582
sS'n_measured'
p583
I1467700
sS'timestamps_file'
p584
S'/home/adita/Greedy 08142017/youtube_traces/All traces/timestamps'
p585
sS'reqs_file'
p586
S'/home/adita/Greedy 08142017/youtube_traces/All traces/requests'
p587
sS'num_clients'
p588
I39852
ssS'cache_policy'
p589
g11
(tRp590
g576
S'LRU'
p591
ssS'strategy'
p592
g11
(tRp593
S'network_cache'
p594
F0.0051588320000000003
sS'alpha'
p595
F0.80000000000000004
sg576
S'LCD'
p596
ssS'content_placement'
p597
g11
(tRp598
g576
S'UNIFORM'
p599
ssS'cache_placement'
p600
g11
(tRp601
g594
F0.0051588320000000003
sg576
g599
ssS'desc'
p602
S'Alpha: 0.8, strategy: LCD, topology: GARR, network cache: 0.005158832'
p603
sS'topology'
p604
g11
(tRp605
g576
S'GARR'
p606
ssg11
(tRp607
S'LATENCY'
p608
g11
(tRp609
S'MEAN'
p610
F56.28527900797166
sstp611
a(g11
(tRp612
S'workload'
p613
g11
(tRp614
S'n_contents'
p615
I581527
sS'name'
p616
S'YOUTUBETRACE'
p617
sS'n_warmup'
p618
I900000
sS'unique_contents_file'
p619
S'/home/adita/Greedy 08142017/youtube_traces/All traces/unique_contents'
p620
sS'clients_file'
p621
S'/home/adita/Greedy 08142017/youtube_traces/All traces/clients'
p622
sS'n_measured'
p623
I1467700
sS'timestamps_file'
p624
S'/home/adita/Greedy 08142017/youtube_traces/All traces/timestamps'
p625
sS'reqs_file'
p626
S'/home/adita/Greedy 08142017/youtube_traces/All traces/requests'
p627
sS'num_clients'
p628
I39852
ssS'cache_policy'
p629
g11
(tRp630
g616
S'LRU'
p631
ssS'strategy'
p632
g11
(tRp633
S'network_cache'
p634
F0.0068784420000000002
sS'alpha'
p635
F0.80000000000000004
sg616
S'LCD'
p636
ssS'content_placement'
p637
g11
(tRp638
g616
S'UNIFORM'
p639
ssS'cache_placement'
p640
g11
(tRp641
g634
F0.0068784420000000002
sg616
g639
ssS'desc'
p642
S'Alpha: 0.8, strategy: LCD, topology: GARR, network cache: 0.006878442'
p643
sS'topology'
p644
g11
(tRp645
g616
S'GARR'
p646
ssg11
(tRp647
S'LATENCY'
p648
g11
(tRp649
S'MEAN'
p650
F55.065454793213874
sstp651
a(g11
(tRp652
S'workload'
p653
g11
(tRp654
S'n_contents'
p655
I581527
sS'name'
p656
S'YOUTUBETRACE'
p657
sS'n_warmup'
p658
I900000
sS'unique_contents_file'
p659
S'/home/adita/Greedy 08142017/youtube_traces/All traces/unique_contents'
p660
sS'clients_file'
p661
S'/home/adita/Greedy 08142017/youtube_traces/All traces/clients'
p662
sS'n_measured'
p663
I1467700
sS'timestamps_file'
p664
S'/home/adita/Greedy 08142017/youtube_traces/All traces/timestamps'
p665
sS'reqs_file'
p666
S'/home/adita/Greedy 08142017/youtube_traces/All traces/requests'
p667
sS'num_clients'
p668
I39852
ssS'cache_policy'
p669
g11
(tRp670
g656
S'LRU'
p671
ssS'strategy'
p672
g11
(tRp673
S'network_cache'
p674
F0.0068784420000000002
sS'alpha'
p675
F0.80000000000000004
sg656
S'OPTIMAL'
p676
ssS'content_placement'
p677
g11
(tRp678
g656
S'UNIFORM'
p679
ssS'cache_placement'
p680
g11
(tRp681
g674
F0.0068784420000000002
sg656
g679
ssS'desc'
p682
S'Alpha: 0.8, strategy: OPTIMAL, topology: GARR, network cache: 0.006878442'
p683
sS'topology'
p684
g11
(tRp685
g656
S'GARR'
p686
ssg11
(tRp687
S'LATENCY'
p688
g11
(tRp689
S'MEAN'
p690
F48.238686380050417
sstp691
a(g11
(tRp692
S'workload'
p693
g11
(tRp694
S'n_contents'
p695
I581527
sS'name'
p696
S'YOUTUBETRACE'
p697
sS'n_warmup'
p698
I900000
sS'unique_contents_file'
p699
S'/home/adita/Greedy 08142017/youtube_traces/All traces/unique_contents'
p700
sS'clients_file'
p701
S'/home/adita/Greedy 08142017/youtube_traces/All traces/clients'
p702
sS'n_measured'
p703
I1467700
sS'timestamps_file'
p704
S'/home/adita/Greedy 08142017/youtube_traces/All traces/timestamps'
p705
sS'reqs_file'
p706
S'/home/adita/Greedy 08142017/youtube_traces/All traces/requests'
p707
sS'num_clients'
p708
I39852
ssS'cache_policy'
p709
g11
(tRp710
g696
S'LRU'
p711
ssS'strategy'
p712
g11
(tRp713
S'network_cache'
p714
F0.0051588320000000003
sS'alpha'
p715
F0.80000000000000004
sg696
S'OPTIMAL'
p716
ssS'content_placement'
p717
g11
(tRp718
g696
S'UNIFORM'
p719
ssS'cache_placement'
p720
g11
(tRp721
g714
F0.0051588320000000003
sg696
g719
ssS'desc'
p722
S'Alpha: 0.8, strategy: OPTIMAL, topology: GARR, network cache: 0.005158832'
p723
sS'topology'
p724
g11
(tRp725
g696
S'GARR'
p726
ssg11
(tRp727
S'LATENCY'
p728
g11
(tRp729
S'MEAN'
p730
F51.647524698507873
sstp731
a(g11
(tRp732
S'workload'
p733
g11
(tRp734
S'n_contents'
p735
I581527
sS'name'
p736
S'YOUTUBETRACE'
p737
sS'n_warmup'
p738
I900000
sS'unique_contents_file'
p739
S'/home/adita/Greedy 08142017/youtube_traces/All traces/unique_contents'
p740
sS'clients_file'
p741
S'/home/adita/Greedy 08142017/youtube_traces/All traces/clients'
p742
sS'n_measured'
p743
I1467700
sS'timestamps_file'
p744
S'/home/adita/Greedy 08142017/youtube_traces/All traces/timestamps'
p745
sS'reqs_file'
p746
S'/home/adita/Greedy 08142017/youtube_traces/All traces/requests'
p747
sS'num_clients'
p748
I39852
ssS'cache_policy'
p749
g11
(tRp750
g736
S'LRU'
p751
ssS'strategy'
p752
g11
(tRp753
S'network_cache'
p754
F0.001719611
sS'alpha'
p755
F0.80000000000000004
sg736
S'OPTIMAL'
p756
ssS'content_placement'
p757
g11
(tRp758
g736
S'UNIFORM'
p759
ssS'cache_placement'
p760
g11
(tRp761
g754
F0.001719611
sg736
g759
ssS'desc'
p762
S'Alpha: 0.8, strategy: OPTIMAL, topology: GARR, network cache: 0.001719611'
p763
sS'topology'
p764
g11
(tRp765
g736
S'GARR'
p766
ssg11
(tRp767
S'LATENCY'
p768
g11
(tRp769
S'MEAN'
p770
F61.688391360632281
sstp771
a(g11
(tRp772
S'workload'
p773
g11
(tRp774
S'n_contents'
p775
I581527
sS'name'
p776
S'YOUTUBETRACE'
p777
sS'n_warmup'
p778
I900000
sS'unique_contents_file'
p779
S'/home/adita/Greedy 08142017/youtube_traces/All traces/unique_contents'
p780
sS'clients_file'
p781
S'/home/adita/Greedy 08142017/youtube_traces/All traces/clients'
p782
sS'n_measured'
p783
I1467700
sS'timestamps_file'
p784
S'/home/adita/Greedy 08142017/youtube_traces/All traces/timestamps'
p785
sS'reqs_file'
p786
S'/home/adita/Greedy 08142017/youtube_traces/All traces/requests'
p787
sS'num_clients'
p788
I39852
ssS'cache_policy'
p789
g11
(tRp790
g776
S'LRU'
p791
ssS'strategy'
p792
g11
(tRp793
S'network_cache'
p794
F0.0034392210000000001
sS'alpha'
p795
F0.80000000000000004
sg776
S'OPTIMAL'
p796
ssS'content_placement'
p797
g11
(tRp798
g776
S'UNIFORM'
p799
ssS'cache_placement'
p800
g11
(tRp801
g794
F0.0034392210000000001
sg776
g799
ssS'desc'
p802
S'Alpha: 0.8, strategy: OPTIMAL, topology: GARR, network cache: 0.003439221'
p803
sS'topology'
p804
g11
(tRp805
g776
S'GARR'
p806
ssg11
(tRp807
S'LATENCY'
p808
g11
(tRp809
S'MEAN'
p810
F56.161177352319953
sstp811
atRp812
sb.